; Function Attrs: mustprogress uwtable
define hidden void @_ZN2cv6detail20Jpeg2KOpjDecoderBaseC2E12CODEC_FORMAT(ptr noundef nonnull align 8 dereferenceable(328) %0, i32 noundef %1) unnamed_addr #3 align 2 personality ptr @__gxx_personality_v0 {
  tail call void @_ZN2cv16BaseImageDecoderC2Ev(ptr noundef nonnull align 8 dereferenceable(272) %0)
  store ptr getelementptr inbounds inrange(-16, 104) (i8, ptr @_ZTVN2cv6detail20Jpeg2KOpjDecoderBaseE, i64 16), ptr %0, align 8
  %3 = getelementptr inbounds i8, ptr %0, i64 272
  %4 = getelementptr inbounds i8, ptr %0, i64 324
  tail call void @llvm.memset.p0.i64(ptr noundef nonnull align 8 dereferenceable(52) %3, i8 0, i64 52, i1 false)
  store i32 %1, ptr %4, align 4
  %5 = getelementptr inbounds i8, ptr %0, i64 184
  store i8 1, ptr %5, align 8
  ret void
}